Certificate:
    Data:
        Version: 3 (0x2)
        Serial Number:
            49:f2:1d:b8:8f:f9:ec:df:ad:98:cf:f6:bf:93:80:cb:54:38:3e:83
        Signature Algorithm: sha256WithRSAEncryption
        Issuer: CN = QUIC Server Root CA
        Validity
            Not Before: Jan 21 01:47:33 2022 GMT
            Not After : Jan 24 01:47:33 2022 GMT
        Subject: CN = QUIC Server Root CA
        Subject Public Key Info:
            Public Key Algorithm: rsaEncryption
                RSA Public-Key: (2048 bit)
                Modulus:
                    00:9f:20:a0:22:cc:80:9e:83:2a:5e:d1:32:ce:f8:
                    c0:4f:44:77:f6:5e:58:76:52:9a:ec:39:13:62:09:
                    9a:02:b8:a6:83:f2:26:9d:2d:2a:66:6a:c0:77:4b:
                    09:af:a9:a3:8d:29:eb:a3:9c:2b:f2:de:eb:f1:8f:
                    95:2a:8a:54:9d:d1:c1:3b:af:e6:6f:91:4e:f9:e9:
                    87:d0:be:e7:b9:01:29:22:be:d4:60:95:8c:b9:cb:
                    7b:5c:b5:9d:f4:c5:28:53:20:8c:38:38:e8:e1:98:
                    0d:fc:79:81:97:da:c3:b7:c8:ee:e7:a0:97:40:ca:
                    45:4a:0e:20:fd:c8:ee:9f:20:36:06:ed:da:c4:cc:
                    09:18:01:66:17:c8:47:af:a7:10:50:40:99:fc:0e:
                    49:1f:a4:28:9a:c6:47:3d:f9:ce:48:88:38:08:39:
                    bb:17:b0:1e:56:ba:22:dd:ad:83:cd:3c:21:3a:d5:
                    29:3b:9f:80:ae:31:4f:f6:4a:38:56:70:78:82:e1:
                    94:d6:99:f7:3e:24:1e:3d:d2:62:49:2a:0e:ed:20:
                    23:94:7f:26:f6:8c:8f:bf:ad:3e:ff:c9:a5:f8:db:
                    b6:90:45:12:80:3c:c2:f9:70:25:b2:be:1b:00:ed:
                    02:66:db:d9:bf:5c:58:60:08:a8:f1:4e:e1:15:0c:
                    7c:b5
                Exponent: 65537 (0x10001)
        X509v3 extensions:
            X509v3 Basic Constraints: critical
                CA:TRUE
            X509v3 Subject Key Identifier: 
                BE:C2:8C:EB:B9:1B:C0:0C:40:53:27:E0:BC:79:8B:F5:74:F9:27:B2
            X509v3 Key Usage: critical
                Certificate Sign, CRL Sign
    Signature Algorithm: sha256WithRSAEncryption
         0b:73:b6:fa:67:58:7b:1f:98:25:e9:0f:dc:e1:d2:58:64:4d:
         61:33:1c:3d:c5:de:af:aa:e5:1f:1a:71:c0:27:a0:70:a1:04:
         6c:75:73:9f:38:b0:de:22:85:bd:3c:5f:42:80:56:3e:5f:d5:
         a4:1e:40:47:8c:5c:c6:f2:0f:eb:7b:c6:ac:42:d0:89:c4:b9:
         f7:7a:3e:fc:13:15:bc:6c:62:63:91:e0:53:1f:63:76:aa:4c:
         96:13:7a:f5:94:19:56:88:6c:9d:f5:41:a8:ce:a4:b1:39:c8:
         29:33:c4:d8:f3:c2:ca:c3:cc:a0:18:33:c0:fa:38:46:c8:30:
         64:48:00:10:1f:ec:02:0d:4c:2e:4f:8d:66:b0:55:f8:b8:06:
         37:22:f6:32:13:ac:ac:01:87:39:a7:32:1c:40:62:ff:f2:c0:
         29:cd:f9:18:b2:47:b8:1c:3d:64:8b:51:19:e1:e3:a5:1d:cf:
         f1:37:30:3d:be:1d:fd:a9:e7:ab:f0:0a:13:f6:46:8a:ce:58:
         96:f4:4e:02:15:9d:4d:fd:61:1c:d6:2a:9e:f0:f2:6e:3f:da:
         87:04:ff:64:4f:c0:28:73:ae:d0:40:bf:43:b0:41:bb:92:d8:
         f2:0b:46:53:16:77:f1:aa:93:9e:b4:7e:30:b8:fc:e2:a9:c5:
         f9:4e:2e:80
-----BEGIN CERTIFICATE-----
MIIDDDCCAfSgAwIBAgIUSfIduI/57N+tmM/2v5OAy1Q4PoMwDQYJKoZIhvcNAQEL
BQAwHjEcMBoGA1UEAwwTUVVJQyBTZXJ2ZXIgUm9vdCBDQTAeFw0yMjAxMjEwMTQ3
MzNaFw0yMjAxMjQwMTQ3MzNaMB4xHDAaBgNVBAMME1FVSUMgU2VydmVyIFJvb3Qg
Q0EwggEiMA0GCSqGSIb3DQEBAQUAA4IBDwAwggEKAoIBAQCfIKAizICegype0TLO
+MBPRHf2Xlh2UprsORNiCZoCuKaD8iadLSpmasB3SwmvqaONKeujnCvy3uvxj5Uq
ilSd0cE7r+ZvkU756YfQvue5ASkivtRglYy5y3tctZ30xShTIIw4OOjhmA38eYGX
2sO3yO7noJdAykVKDiD9yO6fIDYG7drEzAkYAWYXyEevpxBQQJn8DkkfpCiaxkc9
+c5IiDgIObsXsB5WuiLdrYPNPCE61Sk7n4CuMU/2SjhWcHiC4ZTWmfc+JB490mJJ
Kg7tICOUfyb2jI+/rT7/yaX427aQRRKAPML5cCWyvhsA7QJm29m/XFhgCKjxTuEV
DHy1AgMBAAGjQjBAMA8GA1UdEwEB/wQFMAMBAf8wHQYDVR0OBBYEFL7CjOu5G8AM
QFMn4Lx5i/V0+SeyMA4GA1UdDwEB/wQEAwIBBjANBgkqhkiG9w0BAQsFAAOCAQEA
C3O2+mdYex+YJekP3OHSWGRNYTMcPcXer6rlHxpxwCegcKEEbHVznziw3iKFvTxf
QoBWPl/VpB5AR4xcxvIP63vGrELQicS593o+/BMVvGxiY5HgUx9jdqpMlhN69ZQZ
VohsnfVBqM6ksTnIKTPE2PPCysPMoBgzwPo4RsgwZEgAEB/sAg1MLk+NZrBV+LgG
NyL2MhOsrAGHOacyHEBi//LAKc35GLJHuBw9ZItRGeHjpR3P8TcwPb4d/annq/AK
E/ZGis5YlvROAhWdTf1hHNYqnvDybj/ahwT/ZE/AKHOu0EC/Q7BBu5LY8gtGUxZ3
8aqTnrR+MLj84qnF+U4ugA==
-----END CERTIFICATE-----
