Certificate:
    Data:
        Version: 3 (0x2)
        Serial Number: 1 (0x1)
        Signature Algorithm: sha256WithRSAEncryption
        Issuer: CN=QUIC Server Root CA
        Validity
            Not Before: Jan 21 01:47:33 2022 GMT
            Not After : Jan 24 01:47:33 2022 GMT
        Subject: C=US, ST=California, L=Mountain View, O=QUIC Server, CN=127.0.0.1
        Subject Public Key Info:
            Public Key Algorithm: rsaEncryption
                RSA Public-Key: (2048 bit)
                Modulus:
                    00:b4:1a:d0:7e:49:d2:89:97:2f:87:ab:21:5c:b2:
                    06:c7:e0:8e:bf:86:a6:78:4f:af:4d:6f:d8:6f:a9:
                    c9:66:e6:62:c7:87:45:17:0e:03:b4:3d:a9:44:cb:
                    9e:4e:1b:88:57:0f:31:ad:93:e6:6f:fc:b0:31:26:
                    c6:9a:97:27:fa:7e:97:6d:d0:9b:8a:57:ee:72:27:
                    1f:ed:69:9f:a6:05:2d:82:e9:51:5d:76:45:9a:9b:
                    1f:52:ce:cc:22:9f:6e:3a:16:85:87:0b:6c:b7:eb:
                    13:1f:e3:3e:ee:3c:1a:3c:22:40:70:69:eb:ef:18:
                    73:82:a1:cd:f7:40:b8:bd:91:df:d0:48:7f:81:c8:
                    5b:4c:2b:a3:9a:33:be:b2:f5:fd:0c:06:17:51:91:
                    e0:7b:f3:c2:ec:e4:b9:e0:ef:70:1c:91:9a:f7:44:
                    e0:99:d3:06:31:45:65:72:cc:69:88:01:64:82:a6:
                    c1:75:85:ba:b5:23:af:c0:c4:3b:b0:5d:5c:f9:d8:
                    8a:3c:b3:1b:ce:db:e4:aa:2e:54:a9:0d:61:cc:ab:
                    19:0d:92:e8:b1:c7:10:5a:1b:45:3f:82:25:fd:81:
                    0a:a5:8b:4a:5c:78:0d:3e:99:70:82:a9:fd:89:73:
                    85:9a:56:b5:c8:5f:f3:34:93:f0:37:76:8e:d8:8d:
                    cb:33
                Exponent: 65537 (0x10001)
        X509v3 extensions:
            X509v3 Basic Constraints: critical
                CA:FALSE
            X509v3 Subject Key Identifier: 
                91:01:72:3A:CA:69:02:0E:26:6D:99:4A:29:30:79:9D:DD:D9:57:6A
            X509v3 Authority Key Identifier: 
                keyid:BE:C2:8C:EB:B9:1B:C0:0C:40:53:27:E0:BC:79:8B:F5:74:F9:27:B2

            X509v3 Extended Key Usage: 
                TLS Web Server Authentication, TLS Web Client Authentication
            X509v3 Subject Alternative Name: 
                DNS:www.example.org, DNS:mail.example.org, DNS:mail.example.com, IP Address:127.0.0.1
    Signature Algorithm: sha256WithRSAEncryption
         58:33:ef:64:d2:20:15:db:f3:ae:49:f5:d3:f7:10:a5:ba:3d:
         d7:64:7c:0e:dc:8f:26:7d:44:29:5e:7b:af:85:79:11:fb:25:
         3e:ee:f9:2a:23:bf:c8:1d:57:64:b0:4d:6a:b5:05:e8:7b:14:
         92:19:d7:d8:a5:b3:6c:f4:da:4c:e2:3e:ea:8d:f9:88:12:02:
         cc:6d:66:33:5b:e7:b4:44:ee:17:65:a3:f9:38:9b:39:ed:83:
         1c:68:1d:9a:53:e3:73:b0:da:0d:91:be:c6:4a:91:2d:ff:b2:
         ce:3b:92:df:65:02:42:dd:29:5c:b7:5a:45:4d:78:e5:63:ea:
         93:c5:c8:60:27:3d:75:d2:28:4c:af:44:80:55:37:7c:4e:f3:
         83:5f:13:9b:21:41:55:ee:d1:11:7a:24:a6:d4:71:4f:9f:65:
         21:59:96:4e:9d:0f:c5:35:32:b0:5e:cf:84:9d:2d:d5:63:0a:
         b0:29:27:16:a4:f8:f6:79:f4:52:68:35:2b:f5:51:f1:e9:32:
         f4:2c:82:69:8a:b6:b5:03:b5:46:68:9c:21:76:3b:c6:78:79:
         a6:a1:c5:99:7d:b7:47:43:6f:6b:d3:c6:12:0d:04:0c:bb:53:
         3c:40:58:c8:10:c8:99:88:1e:1a:ac:9a:40:af:70:23:1d:e8:
         ea:dc:4e:17
-----BEGIN CERTIFICATE-----
MIIDtDCCApygAwIBAgIBATANBgkqhkiG9w0BAQsFADAeMRwwGgYDVQQDDBNRVUlD
IFNlcnZlciBSb290IENBMB4XDTIyMDEyMTAxNDczM1oXDTIyMDEyNDAxNDczM1ow
ZDELMAkGA1UEBhMCVVMxEzARBgNVBAgMCkNhbGlmb3JuaWExFjAUBgNVBAcMDU1v
dW50YWluIFZpZXcxFDASBgNVBAoMC1FVSUMgU2VydmVyMRIwEAYDVQQDDAkxMjcu
MC4wLjEwggEiMA0GCSqGSIb3DQEBAQUAA4IBDwAwggEKAoIBAQC0GtB+SdKJly+H
qyFcsgbH4I6/hqZ4T69Nb9hvqclm5mLHh0UXDgO0PalEy55OG4hXDzGtk+Zv/LAx
Jsaalyf6fpdt0JuKV+5yJx/taZ+mBS2C6VFddkWamx9Szswin246FoWHC2y36xMf
4z7uPBo8IkBwaevvGHOCoc33QLi9kd/QSH+ByFtMK6OaM76y9f0MBhdRkeB788Ls
5Lng73AckZr3ROCZ0wYxRWVyzGmIAWSCpsF1hbq1I6/AxDuwXVz52Io8sxvO2+Sq
LlSpDWHMqxkNkuixxxBaG0U/giX9gQqli0pceA0+mXCCqf2Jc4WaVrXIX/M0k/A3
do7YjcszAgMBAAGjgbYwgbMwDAYDVR0TAQH/BAIwADAdBgNVHQ4EFgQUkQFyOspp
Ag4mbZlKKTB5nd3ZV2owHwYDVR0jBBgwFoAUvsKM67kbwAxAUyfgvHmL9XT5J7Iw
HQYDVR0lBBYwFAYIKwYBBQUHAwEGCCsGAQUFBwMCMEQGA1UdEQQ9MDuCD3d3dy5l
eGFtcGxlLm9yZ4IQbWFpbC5leGFtcGxlLm9yZ4IQbWFpbC5leGFtcGxlLmNvbYcE
fwAAATANBgkqhkiG9w0BAQsFAAOCAQEAWDPvZNIgFdvzrkn10/cQpbo912R8DtyP
Jn1EKV57r4V5EfslPu75KiO/yB1XZLBNarUF6HsUkhnX2KWzbPTaTOI+6o35iBIC
zG1mM1vntETuF2Wj+TibOe2DHGgdmlPjc7DaDZG+xkqRLf+yzjuS32UCQt0pXLda
RU145WPqk8XIYCc9ddIoTK9EgFU3fE7zg18TmyFBVe7REXokptRxT59lIVmWTp0P
xTUysF7PhJ0t1WMKsCknFqT49nn0Umg1K/VR8eky9CyCaYq2tQO1RmicIXY7xnh5
pqHFmX23R0Nva9PGEg0EDLtTPEBYyBDImYgeGqyaQK9wIx3o6txOFw==
-----END CERTIFICATE-----
